target datalayout = "e-m:e-p270:32:32-p271:32:32-p272:64:64-i64:64-i128:128-f80:128-n8:16:32:64-S128"
target triple = "x86_64-pc-linux-gnu"

%struct.XLogRecData = type { ptr, ptr, i32 }
%struct.registered_buffer = type { i8, i8, %struct.RelFileLocator, i32, i32, ptr, i32, ptr, ptr, [2 x %struct.XLogRecData], [8196 x i8] }
%struct.RelFileLocator = type { i32, i32, i32 }
%struct.PageHeaderData = type { %struct.PageXLogRecPtr, i16, i16, i16, i16, i16, i16, i32, [0 x %struct.ItemIdData] }
%struct.PageXLogRecPtr = type { i32, i32 }
%struct.ItemIdData = type { i32 }
%union.PGAlignedBlock = type { double, [8184 x i8] }

@.str.1 = private unnamed_addr constant [13 x i8] c"xloginsert.c\00", align 1
@max_registered_buffers = internal global i32 0, align 4
@registered_buffers = internal global ptr null, align 8
@max_registered_block_id = internal global i32 0, align 4
@.str.4 = private unnamed_addr constant [28 x i8] c"too many registered buffers\00", align 1
@__func__.XLogRegisterBlock = private unnamed_addr constant [18 x i8] c"XLogRegisterBlock\00", align 1
@LocalBufferBlockPointers = external global ptr, align 8
@BufferBlocks = external global ptr, align 8

; Function Attrs: nounwind uwtable
define dso_local void @XLogRegisterBlock(i8 noundef zeroext %0, ptr noundef %1, i32 noundef %2, i32 noundef %3, ptr noundef %4, i8 noundef zeroext %5) #0 {
  %7 = alloca i8, align 1
  %8 = alloca ptr, align 8
  %9 = alloca i32, align 4
  %10 = alloca i32, align 4
  %11 = alloca ptr, align 8
  %12 = alloca i8, align 1
  %13 = alloca ptr, align 8
  store i8 %0, ptr %7, align 1
  store ptr %1, ptr %8, align 8
  store i32 %2, ptr %9, align 4
  store i32 %3, ptr %10, align 4
  store ptr %4, ptr %11, align 8
  store i8 %5, ptr %12, align 1
  call void @llvm.lifetime.start.p0(i64 8, ptr %13) #9
  %14 = load i8, ptr %7, align 1
  %15 = zext i8 %14 to i32
  %16 = load i32, ptr @max_registered_block_id, align 4
  %17 = icmp sge i32 %15, %16
  br i1 %17, label %18, label %22

18:                                               ; preds = %6
  %19 = load i8, ptr %7, align 1
  %20 = zext i8 %19 to i32
  %21 = add i32 %20, 1
  store i32 %21, ptr @max_registered_block_id, align 4
  br label %22

22:                                               ; preds = %18, %6
  %23 = load i8, ptr %7, align 1
  %24 = zext i8 %23 to i32
  %25 = load i32, ptr @max_registered_buffers, align 4
  %26 = icmp sge i32 %24, %25
  br i1 %26, label %27, label %38

27:                                               ; preds = %22
  br label %28

28:                                               ; preds = %27
  br i1 true, label %29, label %31

29:                                               ; preds = %28
  %30 = call zeroext i1 @errstart_cold(i32 noundef 21, ptr noundef null) #8
  br i1 %30, label %33, label %35

31:                                               ; preds = %28
  %32 = call zeroext i1 @errstart(i32 noundef 21, ptr noundef null)
  br i1 %32, label %33, label %35

33:                                               ; preds = %31, %29
  %34 = call i32 (ptr, ...) @errmsg_internal(ptr noundef @.str.4)
  call void @errfinish(ptr noundef @.str.1, i32 noundef 320, ptr noundef @__func__.XLogRegisterBlock)
  br label %35

35:                                               ; preds = %33, %31, %29
  unreachable

36:                                               ; No predecessors!
  br label %37

37:                                               ; preds = %36
  br label %38

38:                                               ; preds = %37, %22
  %39 = load ptr, ptr @registered_buffers, align 8
  %40 = load i8, ptr %7, align 1
  %41 = zext i8 %40 to i64
  %42 = getelementptr inbounds nuw %struct.registered_buffer, ptr %39, i64 %41
  store ptr %42, ptr %13, align 8
  %43 = load ptr, ptr %13, align 8
  %44 = getelementptr inbounds nuw %struct.registered_buffer, ptr %43, i32 0, i32 2
  %45 = load ptr, ptr %8, align 8
  call void @llvm.memcpy.p0.p0.i64(ptr align 4 %44, ptr align 4 %45, i64 12, i1 false)
  %46 = load i32, ptr %9, align 4
  %47 = load ptr, ptr %13, align 8
  %48 = getelementptr inbounds nuw %struct.registered_buffer, ptr %47, i32 0, i32 3
  store i32 %46, ptr %48, align 8
  %49 = load i32, ptr %10, align 4
  %50 = load ptr, ptr %13, align 8
  %51 = getelementptr inbounds nuw %struct.registered_buffer, ptr %50, i32 0, i32 4
  store i32 %49, ptr %51, align 4
  %52 = load ptr, ptr %11, align 8
  %53 = load ptr, ptr %13, align 8
  %54 = getelementptr inbounds nuw %struct.registered_buffer, ptr %53, i32 0, i32 5
  store ptr %52, ptr %54, align 8
  %55 = load i8, ptr %12, align 1
  %56 = load ptr, ptr %13, align 8
  %57 = getelementptr inbounds nuw %struct.registered_buffer, ptr %56, i32 0, i32 1
  store i8 %55, ptr %57, align 1
  %58 = load ptr, ptr %13, align 8
  %59 = getelementptr inbounds nuw %struct.registered_buffer, ptr %58, i32 0, i32 7
  %60 = load ptr, ptr %13, align 8
  %61 = getelementptr inbounds nuw %struct.registered_buffer, ptr %60, i32 0, i32 8
  store ptr %59, ptr %61, align 8
  %62 = load ptr, ptr %13, align 8
  %63 = getelementptr inbounds nuw %struct.registered_buffer, ptr %62, i32 0, i32 6
  store i32 0, ptr %63, align 8
  %64 = load ptr, ptr %13, align 8
  %65 = getelementptr inbounds nuw %struct.registered_buffer, ptr %64, i32 0, i32 0
  store i8 1, ptr %65, align 8
  call void @llvm.lifetime.end.p0(i64 8, ptr %13) #9
  ret void
}

; Function Attrs: inlinehint nounwind uwtable
define internal ptr @BufferGetPage(i32 noundef %0) #5 {
  %2 = alloca i32, align 4
  store i32 %0, ptr %2, align 4
  %3 = load i32, ptr %2, align 4
  %4 = call ptr @BufferGetBlock(i32 noundef %3)
  ret ptr %4
}

; Function Attrs: inlinehint nounwind uwtable
define internal ptr @BufferGetBlock(i32 noundef %0) #5 {
  %2 = alloca ptr, align 8
  %3 = alloca i32, align 4
  store i32 %0, ptr %3, align 4
  %4 = load i32, ptr %3, align 4
  %5 = icmp slt i32 %4, 0
  br i1 %5, label %6, label %14

6:                                                ; preds = %1
  %7 = load ptr, ptr @LocalBufferBlockPointers, align 8
  %8 = load i32, ptr %3, align 4
  %9 = sub i32 0, %8
  %10 = sub i32 %9, 1
  %11 = sext i32 %10 to i64
  %12 = getelementptr inbounds ptr, ptr %7, i64 %11
  %13 = load ptr, ptr %12, align 8
  store ptr %13, ptr %2, align 8
  br label %21

14:                                               ; preds = %1
  %15 = load ptr, ptr @BufferBlocks, align 8
  %16 = load i32, ptr %3, align 4
  %17 = sub i32 %16, 1
  %18 = sext i32 %17 to i64
  %19 = mul i64 %18, 8192
  %20 = getelementptr inbounds nuw i8, ptr %15, i64 %19
  store ptr %20, ptr %2, align 8
  br label %21

21:                                               ; preds = %14, %6
  %22 = load ptr, ptr %2, align 8
  ret ptr %22
}

; Function Attrs: nounwind uwtable
define dso_local i64 @XLogSaveBufferForHint(i32 noundef %0, i1 noundef zeroext %1) #0 {
  %3 = alloca i32, align 4
  %4 = alloca i8, align 1
  %5 = alloca i64, align 8
  %6 = alloca i64, align 8
  %7 = alloca i64, align 8
  %8 = alloca i32, align 4
  %9 = alloca %union.PGAlignedBlock, align 8
  %10 = alloca ptr, align 8
  %11 = alloca %struct.RelFileLocator, align 4
  %12 = alloca i32, align 4
  %13 = alloca i32, align 4
  %14 = alloca ptr, align 8
  %15 = alloca i16, align 2
  %16 = alloca i16, align 2
  store i32 %0, ptr %3, align 4
  %17 = zext i1 %1 to i8
  store i8 %17, ptr %4, align 1
  call void @llvm.lifetime.start.p0(i64 8, ptr %5) #9
  store i64 0, ptr %5, align 8
  call void @llvm.lifetime.start.p0(i64 8, ptr %6) #9
  call void @llvm.lifetime.start.p0(i64 8, ptr %7) #9
  %18 = call i64 @GetRedoRecPtr()
  store i64 %18, ptr %7, align 8
  %19 = load i32, ptr %3, align 4
  %20 = call i64 @BufferGetLSNAtomic(i32 noundef %19)
  store i64 %20, ptr %6, align 8
  %21 = load i64, ptr %6, align 8
  %22 = load i64, ptr %7, align 8
  %23 = icmp ule i64 %21, %22
  br i1 %23, label %24, label %73

24:                                               ; preds = %2
  call void @llvm.lifetime.start.p0(i64 4, ptr %8) #9
  store i32 0, ptr %8, align 4
  call void @llvm.lifetime.start.p0(i64 8192, ptr %9) #9
  call void @llvm.lifetime.start.p0(i64 8, ptr %10) #9
  %25 = load i32, ptr %3, align 4
  %26 = call ptr @BufferGetBlock(i32 noundef %25)
  store ptr %26, ptr %10, align 8
  call void @llvm.lifetime.start.p0(i64 12, ptr %11) #9
  call void @llvm.lifetime.start.p0(i64 4, ptr %12) #9
  call void @llvm.lifetime.start.p0(i64 4, ptr %13) #9
  %27 = load i8, ptr %4, align 1, !range !4, !noundef !5
  %28 = trunc i8 %27 to i1
  br i1 %28, label %29, label %56

29:                                               ; preds = %24
  call void @llvm.lifetime.start.p0(i64 8, ptr %14) #9
  %30 = load i32, ptr %3, align 4
  %31 = call ptr @BufferGetPage(i32 noundef %30)
  store ptr %31, ptr %14, align 8
  call void @llvm.lifetime.start.p0(i64 2, ptr %15) #9
  %32 = load ptr, ptr %14, align 8
  %33 = getelementptr inbounds nuw %struct.PageHeaderData, ptr %32, i32 0, i32 3
  %34 = load i16, ptr %33, align 4
  store i16 %34, ptr %15, align 2
  call void @llvm.lifetime.start.p0(i64 2, ptr %16) #9
  %35 = load ptr, ptr %14, align 8
  %36 = getelementptr inbounds nuw %struct.PageHeaderData, ptr %35, i32 0, i32 4
  %37 = load i16, ptr %36, align 2
  store i16 %37, ptr %16, align 2
  %38 = getelementptr inbounds [8192 x i8], ptr %9, i64 0, i64 0
  %39 = load ptr, ptr %10, align 8
  %40 = load i16, ptr %15, align 2
  %41 = zext i16 %40 to i64
  call void @llvm.memcpy.p0.p0.i64(ptr align 8 %38, ptr align 1 %39, i64 %41, i1 false)
  %42 = getelementptr inbounds [8192 x i8], ptr %9, i64 0, i64 0
  %43 = load i16, ptr %16, align 2
  %44 = zext i16 %43 to i32
  %45 = sext i32 %44 to i64
  %46 = getelementptr inbounds i8, ptr %42, i64 %45
  %47 = load ptr, ptr %10, align 8
  %48 = load i16, ptr %16, align 2
  %49 = zext i16 %48 to i32
  %50 = sext i32 %49 to i64
  %51 = getelementptr inbounds i8, ptr %47, i64 %50
  %52 = load i16, ptr %16, align 2
  %53 = zext i16 %52 to i32
  %54 = sub i32 8192, %53
  %55 = sext i32 %54 to i64
  call void @llvm.memcpy.p0.p0.i64(ptr align 1 %46, ptr align 1 %51, i64 %55, i1 false)
  call void @llvm.lifetime.end.p0(i64 2, ptr %16) #9
  call void @llvm.lifetime.end.p0(i64 2, ptr %15) #9
  call void @llvm.lifetime.end.p0(i64 8, ptr %14) #9
  br label %59

56:                                               ; preds = %24
  %57 = getelementptr inbounds [8192 x i8], ptr %9, i64 0, i64 0
  %58 = load ptr, ptr %10, align 8
  call void @llvm.memcpy.p0.p0.i64(ptr align 8 %57, ptr align 1 %58, i64 8192, i1 false)
  br label %59

59:                                               ; preds = %56, %29
  call void @XLogBeginInsert()
  %60 = load i8, ptr %4, align 1, !range !4, !noundef !5
  %61 = trunc i8 %60 to i1
  br i1 %61, label %62, label %65

62:                                               ; preds = %59
  %63 = load i32, ptr %8, align 4
  %64 = or i32 %63, 8
  store i32 %64, ptr %8, align 4
  br label %65

65:                                               ; preds = %62, %59
  %66 = load i32, ptr %3, align 4
  call void @BufferGetTag(i32 noundef %66, ptr noundef %11, ptr noundef %12, ptr noundef %13)
  %67 = load i32, ptr %12, align 4
  %68 = load i32, ptr %13, align 4
  %69 = getelementptr inbounds [8192 x i8], ptr %9, i64 0, i64 0
  %70 = load i32, ptr %8, align 4
  %71 = trunc i32 %70 to i8
  call void @XLogRegisterBlock(i8 noundef zeroext 0, ptr noundef %11, i32 noundef %67, i32 noundef %68, ptr noundef %69, i8 noundef zeroext %71)
  %72 = call i64 @XLogInsert(i8 noundef zeroext 0, i8 noundef zeroext -96)
  store i64 %72, ptr %5, align 8
  call void @llvm.lifetime.end.p0(i64 4, ptr %13) #9
  call void @llvm.lifetime.end.p0(i64 4, ptr %12) #9
  call void @llvm.lifetime.end.p0(i64 12, ptr %11) #9
  call void @llvm.lifetime.end.p0(i64 8, ptr %10) #9
  call void @llvm.lifetime.end.p0(i64 8192, ptr %9) #9
  call void @llvm.lifetime.end.p0(i64 4, ptr %8) #9
  br label %73

73:                                               ; preds = %65, %2
  %74 = load i64, ptr %5, align 8
  call void @llvm.lifetime.end.p0(i64 8, ptr %7) #9
  call void @llvm.lifetime.end.p0(i64 8, ptr %6) #9
  call void @llvm.lifetime.end.p0(i64 8, ptr %5) #9
  ret i64 %74
}