; Function Attrs: nounwind uwtable
define dso_local i64 @XLogSaveBufferForHint(i32 noundef %0, i1 noundef zeroext %1) local_unnamed_addr #0 {
  %3 = alloca %union.PGAlignedBlock, align 8
  %4 = alloca %struct.RelFileLocator, align 4
  %5 = alloca i32, align 4
  %6 = alloca i32, align 4
  %7 = tail call i64 @GetRedoRecPtr() #10
  %8 = tail call i64 @BufferGetLSNAtomic(i32 noundef %0) #10
  %.not = icmp ugt i64 %8, %7
  br i1 %.not, label %51, label %9

9:                                                ; preds = %2
  call void @llvm.lifetime.start.p0(i64 8192, ptr nonnull %3) #10
  %10 = icmp slt i32 %0, 0
  br i1 %10, label %BufferGetBlock.exit, label %BufferGetBlock.exit.thread

BufferGetBlock.exit:                              ; preds = %9
  %11 = load ptr, ptr @LocalBufferBlockPointers, align 8
  %12 = xor i32 %0, -1
  %13 = zext nneg i32 %12 to i64
  %14 = getelementptr inbounds nuw ptr, ptr %11, i64 %13
  %15 = load ptr, ptr %14, align 8
  call void @llvm.lifetime.start.p0(i64 12, ptr nonnull %4) #10
  call void @llvm.lifetime.start.p0(i64 4, ptr nonnull %5) #10
  call void @llvm.lifetime.start.p0(i64 4, ptr nonnull %6) #10
  br i1 %1, label %BufferGetPage.exit, label %30

BufferGetBlock.exit.thread:                       ; preds = %9
  %16 = load ptr, ptr @BufferBlocks, align 8
  %17 = add nsw i32 %0, -1
  %18 = sext i32 %17 to i64
  %19 = shl nsw i64 %18, 13
  %20 = getelementptr inbounds nuw i8, ptr %16, i64 %19
  call void @llvm.lifetime.start.p0(i64 12, ptr nonnull %4) #10
  call void @llvm.lifetime.start.p0(i64 4, ptr nonnull %5) #10
  call void @llvm.lifetime.start.p0(i64 4, ptr nonnull %6) #10
  br i1 %1, label %BufferGetPage.exit, label %30

BufferGetPage.exit:                               ; preds = %BufferGetBlock.exit.thread, %BufferGetBlock.exit
  %.0.i2124 = phi ptr [ %15, %BufferGetBlock.exit ], [ %20, %BufferGetBlock.exit.thread ]
  %21 = getelementptr inbounds nuw i8, ptr %.0.i2124, i64 12
  %22 = load i16, ptr %21, align 4
  %23 = getelementptr inbounds nuw i8, ptr %.0.i2124, i64 14
  %24 = load i16, ptr %23, align 2
  %25 = zext i16 %22 to i64
  call void @llvm.memcpy.p0.p0.i64(ptr nonnull align 8 %3, ptr align 1 %.0.i2124, i64 %25, i1 false)
  %26 = zext i16 %24 to i64
  %27 = getelementptr inbounds nuw i8, ptr %3, i64 %26
  %28 = getelementptr inbounds nuw i8, ptr %.0.i2124, i64 %26
  %29 = sub nsw i64 8192, %26
  call void @llvm.memcpy.p0.p0.i64(ptr nonnull align 1 %27, ptr align 1 %28, i64 %29, i1 false)
  br label %31

30:                                               ; preds = %BufferGetBlock.exit.thread, %BufferGetBlock.exit
  %.0.i22 = phi ptr [ %20, %BufferGetBlock.exit.thread ], [ %15, %BufferGetBlock.exit ]
  call void @llvm.memcpy.p0.p0.i64(ptr noundef nonnull align 8 dereferenceable(8192) %3, ptr noundef nonnull align 1 dereferenceable(8192) %.0.i22, i64 8192, i1 false)
  br label %31

31:                                               ; preds = %30, %BufferGetPage.exit
  tail call void @XLogBeginInsert()
  %spec.select = select i1 %1, i8 8, i8 0
  call void @BufferGetTag(i32 noundef %0, ptr noundef nonnull %4, ptr noundef nonnull %5, ptr noundef nonnull %6) #10
  %32 = load i32, ptr %5, align 4
  %33 = load i32, ptr %6, align 4
  %34 = load i32, ptr @max_registered_block_id, align 4
  %.not.i = icmp sgt i32 %34, 0
  br i1 %.not.i, label %36, label %35

35:                                               ; preds = %31
  store i32 1, ptr @max_registered_block_id, align 4
  br label %36

36:                                               ; preds = %35, %31
  %37 = load i32, ptr @max_registered_buffers, align 4
  %.not17.i = icmp sgt i32 %37, 0
  br i1 %.not17.i, label %XLogRegisterBlock.exit, label %38

38:                                               ; preds = %36
  %39 = call zeroext i1 @errstart_cold(i32 noundef 21, ptr noundef null) #11
  call void @llvm.assume(i1 %39)
  %40 = call i32 (ptr, ...) @errmsg_internal(ptr noundef nonnull @.str.4) #10
  call void @errfinish(ptr noundef nonnull @.str.1, i32 noundef 320, ptr noundef nonnull @__func__.XLogRegisterBlock) #10
  unreachable

XLogRegisterBlock.exit:                           ; preds = %36
  %41 = load ptr, ptr @registered_buffers, align 8
  %42 = getelementptr inbounds nuw i8, ptr %41, i64 4
  call void @llvm.memcpy.p0.p0.i64(ptr noundef nonnull align 4 dereferenceable(12) %42, ptr noundef nonnull readonly align 4 dereferenceable(12) %4, i64 12, i1 false)
  %43 = getelementptr inbounds nuw i8, ptr %41, i64 16
  store i32 %32, ptr %43, align 8
  %44 = getelementptr inbounds nuw i8, ptr %41, i64 20
  store i32 %33, ptr %44, align 4
  %45 = getelementptr inbounds nuw i8, ptr %41, i64 24
  store ptr %3, ptr %45, align 8
  %46 = getelementptr inbounds nuw i8, ptr %41, i64 1
  store i8 %spec.select, ptr %46, align 1
  %47 = getelementptr inbounds nuw i8, ptr %41, i64 40
  %48 = getelementptr inbounds nuw i8, ptr %41, i64 48
  store ptr %47, ptr %48, align 8
  %49 = getelementptr inbounds nuw i8, ptr %41, i64 32
  store i32 0, ptr %49, align 8
  store i8 1, ptr %41, align 8
  %50 = call i64 @XLogInsert(i8 noundef zeroext 0, i8 noundef zeroext -96)
  call void @llvm.lifetime.end.p0(i64 4, ptr nonnull %6) #10
  call void @llvm.lifetime.end.p0(i64 4, ptr nonnull %5) #10
  call void @llvm.lifetime.end.p0(i64 12, ptr nonnull %4) #10
  call void @llvm.lifetime.end.p0(i64 8192, ptr nonnull %3) #10
  br label %51

51:                                               ; preds = %XLogRegisterBlock.exit, %2
  %.0 = phi i64 [ %50, %XLogRegisterBlock.exit ], [ 0, %2 ]
  ret i64 %.0
}